target datalayout = "e-m:e-p270:32:32-p271:32:32-p272:64:64-i64:64-i128:128-f80:128-n8:16:32:64-S128"
target triple = "x86_64-unknown-linux-gnu"

; Function Attrs: mustprogress nounwind uwtable
define dso_local i32 @napi_remove_async_cleanup_hook(ptr noundef %remove_handle) #4 {
entry:
  %retval = alloca i32, align 4
  %remove_handle.addr = alloca ptr, align 8
  store ptr %remove_handle, ptr %remove_handle.addr, align 8
  %0 = load ptr, ptr %remove_handle.addr, align 8
  %cmp = icmp eq ptr %0, null
  br i1 %cmp, label %if.then, label %if.end

if.then:                                          ; preds = %entry
  store i32 1, ptr %retval, align 4
  br label %return

if.end:                                           ; preds = %entry
  %1 = load ptr, ptr %remove_handle.addr, align 8
  %isnull = icmp eq ptr %1, null
  br i1 %isnull, label %delete.end, label %delete.notnull

delete.notnull:                                   ; preds = %if.end
  call void @_ZN32napi_async_cleanup_hook_handle__D2Ev(ptr noundef nonnull align 8 dereferenceable(48) %1) #3
  call void @_ZdlPv(ptr noundef %1) #17
  br label %delete.end

delete.end:                                       ; preds = %delete.notnull, %if.end
  store i32 0, ptr %retval, align 4
  br label %return

return:                                           ; preds = %delete.end, %if.then
  %2 = load i32, ptr %retval, align 4
  ret i32 %2
}