; Function Attrs: mustprogress nounwind uwtable
define dso_local noundef i32 @napi_remove_async_cleanup_hook(ptr noundef %remove_handle) local_unnamed_addr #3 {
entry:
  %cmp = icmp eq ptr %remove_handle, null
  br i1 %cmp, label %return, label %delete.notnull

delete.notnull:                                   ; preds = %entry
  tail call void @_ZN32napi_async_cleanup_hook_handle__D2Ev(ptr noundef nonnull align 8 dereferenceable(48) %remove_handle) #21
  tail call void @_ZdlPv(ptr noundef nonnull %remove_handle) #24
  br label %return

return:                                           ; preds = %entry, %delete.notnull
  %retval.0 = phi i32 [ 0, %delete.notnull ], [ 1, %entry ]
  ret i32 %retval.0
}